; ModuleID = 'source-C-CXX/32/196.c'
source_filename = "source-C-CXX/32/196.c"
target datalayout = "e-m:e-p270:32:32-p271:32:32-p272:64:64-i64:64-f80:128-n8:16:32:64-S128"
target triple = "x86_64-pc-linux-gnu"

@.str = private unnamed_addr constant [3 x i8] c"%d\00", align 1
@.str.1 = private unnamed_addr constant [3 x i8] c"%s\00", align 1

; Function Attrs: nofree nounwind sspstrong uwtable
define dso_local i32 @main() local_unnamed_addr #0 {
  %1 = alloca i32, align 4
  %2 = alloca [1000 x [255 x i8]], align 16
  %3 = bitcast i32* %1 to i8*
  call void @llvm.lifetime.start.p0i8(i64 4, i8* nonnull %3) #4
  %4 = getelementptr inbounds [1000 x [255 x i8]], [1000 x [255 x i8]]* %2, i64 0, i64 0, i64 0
  call void @llvm.lifetime.start.p0i8(i64 255000, i8* nonnull %4) #4
  %5 = call i32 (i8*, ...) @__isoc99_scanf(i8* getelementptr inbounds ([3 x i8], [3 x i8]* @.str, i64 0, i64 0), i32* nonnull %1)
  %6 = load i32, i32* %1, align 4, !tbaa !5
  %7 = icmp sgt i32 %6, 0
  br i1 %7, label %8, label %34

8:                                                ; preds = %0, %28
  %9 = phi i64 [ %30, %28 ], [ 0, %0 ]
  %10 = getelementptr inbounds [1000 x [255 x i8]], [1000 x [255 x i8]]* %2, i64 0, i64 %9, i64 0
  %11 = call i32 (i8*, ...) @__isoc99_scanf(i8* getelementptr inbounds ([3 x i8], [3 x i8]* @.str.1, i64 0, i64 0), i8* nonnull %10)
  br label %12

12:                                               ; preds = %26, %8
  %13 = phi i64 [ %27, %26 ], [ 0, %8 ]
  %14 = getelementptr inbounds [1000 x [255 x i8]], [1000 x [255 x i8]]* %2, i64 0, i64 %9, i64 %13
  %15 = load i8, i8* %14, align 1, !tbaa !9
  switch i8 %15, label %19 [
    i8 0, label %28
    i8 65, label %16
  ]

16:                                               ; preds = %12
  %17 = call i32 @putchar(i32 84)
  %18 = load i8, i8* %14, align 1, !tbaa !9
  br label %19

19:                                               ; preds = %12, %16
  %20 = phi i8 [ %15, %12 ], [ %18, %16 ]
  switch i8 %20, label %26 [
    i8 84, label %23
    i8 71, label %21
    i8 67, label %22
  ]

21:                                               ; preds = %19
  br label %23

22:                                               ; preds = %19
  br label %23

23:                                               ; preds = %19, %21, %22
  %24 = phi i32 [ 71, %22 ], [ 67, %21 ], [ 65, %19 ]
  %25 = call i32 @putchar(i32 %24)
  br label %26

26:                                               ; preds = %23, %19
  %27 = add nuw i64 %13, 1
  br label %12, !llvm.loop !10

28:                                               ; preds = %12
  %29 = call i32 @putchar(i32 10)
  %30 = add nuw nsw i64 %9, 1
  %31 = load i32, i32* %1, align 4, !tbaa !5
  %32 = sext i32 %31 to i64
  %33 = icmp slt i64 %30, %32
  br i1 %33, label %8, label %34, !llvm.loop !12

34:                                               ; preds = %28, %0
  call void @llvm.lifetime.end.p0i8(i64 255000, i8* nonnull %4) #4
  call void @llvm.lifetime.end.p0i8(i64 4, i8* nonnull %3) #4
  ret i32 0
}

; Function Attrs: argmemonly mustprogress nofree nosync nounwind willreturn
declare void @llvm.lifetime.start.p0i8(i64 immarg, i8* nocapture) #1

; Function Attrs: nofree nounwind
declare noundef i32 @__isoc99_scanf(i8* nocapture noundef readonly, ...) local_unnamed_addr #2

; Function Attrs: argmemonly mustprogress nofree nosync nounwind willreturn
declare void @llvm.lifetime.end.p0i8(i64 immarg, i8* nocapture) #1

; Function Attrs: nofree nounwind
declare noundef i32 @putchar(i32 noundef) local_unnamed_addr #3


!llvm.module.flags = !{!0, !1, !2, !3}
!llvm.ident = !{!4}

!0 = !{i32 1, !"wchar_size", i32 4}
!1 = !{i32 7, !"PIC Level", i32 2}
!2 = !{i32 7, !"PIE Level", i32 2}
!3 = !{i32 7, !"uwtable", i32 1}
!4 = !{!"clang version 13.0.0"}
!5 = !{!6, !6, i64 0}
!6 = !{!"int", !7, i64 0}
!7 = !{!"omnipotent char", !8, i64 0}
!8 = !{!"Simple C/C++ TBAA"}
!9 = !{!7, !7, i64 0}
!10 = distinct !{!10, !11}
!11 = !{!"llvm.loop.mustprogress"}
!12 = distinct !{!12, !11}
